target datalayout = "e-m:e-p270:32:32-p271:32:32-p272:64:64-i64:64-i128:128-f80:128-n8:16:32:64-S128"
target triple = "x86_64-pc-linux-gnu"

@_ZZN2cvL26isAlignedAllocationEnabledEvE11useMemalign = internal global i8 0, align 1
@_ZGVZN2cvL26isAlignedAllocationEnabledEvE11useMemalign = internal global i64 0, align 8
@.str = private unnamed_addr constant [23 x i8] c"OPENCV_ENABLE_MEMALIGN\00", align 1

; Function Attrs: mustprogress uwtable
define internal noundef zeroext i1 @_ZN2cvL28readMemoryAlignmentParameterEv() #4 {
  %1 = alloca i8, align 1
  call void @llvm.lifetime.start.p0(i64 1, ptr %1) #3
  store i8 1, ptr %1, align 1, !tbaa !12
  store i8 0, ptr %1, align 1, !tbaa !12
  %2 = load i8, ptr %1, align 1, !tbaa !12, !range !15, !noundef !16
  %3 = trunc i8 %2 to i1
  %4 = call noundef zeroext i1 @_ZN2cv5utils29getConfigurationParameterBoolEPKcb(ptr noundef @.str, i1 noundef zeroext %3)
  %5 = zext i1 %4 to i8
  store i8 %5, ptr %1, align 1, !tbaa !12
  %6 = load i8, ptr %1, align 1, !tbaa !12, !range !15, !noundef !16
  %7 = trunc i8 %6 to i1
  call void @llvm.lifetime.end.p0(i64 1, ptr %1) #3
  ret i1 %7
}

; Function Attrs: inlinehint mustprogress nounwind uwtable
define internal noundef ptr @_ZN2cvL8alignPtrIPhEEPT_S3_i(ptr noundef %0, i32 noundef %1) #9 {
  %3 = alloca ptr, align 8
  %4 = alloca i32, align 4
  store ptr %0, ptr %3, align 8, !tbaa !22
  store i32 %1, ptr %4, align 4, !tbaa !25
  %5 = load ptr, ptr %3, align 8, !tbaa !22
  %6 = ptrtoint ptr %5 to i64
  %7 = load i32, ptr %4, align 4, !tbaa !25
  %8 = sext i32 %7 to i64
  %9 = add i64 %6, %8
  %10 = sub i64 %9, 1
  %11 = load i32, ptr %4, align 4, !tbaa !25
  %12 = sub nsw i32 0, %11
  %13 = sext i32 %12 to i64
  %14 = and i64 %10, %13
  %15 = inttoptr i64 %14 to ptr
  ret ptr %15
}

; Function Attrs: inlinehint mustprogress uwtable
define internal noundef zeroext i1 @_ZN2cvL26isAlignedAllocationEnabledEv() #6 personality ptr @__gxx_personality_v0 {
  %1 = alloca ptr, align 8
  %2 = alloca i32, align 4
  %3 = load atomic i8, ptr @_ZGVZN2cvL26isAlignedAllocationEnabledEvE11useMemalign acquire, align 8
  %4 = icmp eq i8 %3, 0
  br i1 %4, label %5, label %12, !prof !14

5:                                                ; preds = %0
  %6 = call i32 @__cxa_guard_acquire(ptr @_ZGVZN2cvL26isAlignedAllocationEnabledEvE11useMemalign) #3
  %7 = icmp ne i32 %6, 0
  br i1 %7, label %8, label %12

8:                                                ; preds = %5
  %9 = invoke noundef zeroext i1 @_ZN2cvL28readMemoryAlignmentParameterEv()
          to label %10 unwind label %15

10:                                               ; preds = %8
  %11 = zext i1 %9 to i8
  store i8 %11, ptr @_ZZN2cvL26isAlignedAllocationEnabledEvE11useMemalign, align 1, !tbaa !12
  call void @__cxa_guard_release(ptr @_ZGVZN2cvL26isAlignedAllocationEnabledEvE11useMemalign) #3
  br label %12

12:                                               ; preds = %10, %5, %0
  %13 = load i8, ptr @_ZZN2cvL26isAlignedAllocationEnabledEvE11useMemalign, align 1, !tbaa !12, !range !15, !noundef !16
  %14 = trunc i8 %13 to i1
  ret i1 %14

15:                                               ; preds = %8
  %16 = landingpad { ptr, i32 }
          cleanup
  %17 = extractvalue { ptr, i32 } %16, 0
  store ptr %17, ptr %1, align 8
  %18 = extractvalue { ptr, i32 } %16, 1
  store i32 %18, ptr %2, align 4
  call void @__cxa_guard_abort(ptr @_ZGVZN2cvL26isAlignedAllocationEnabledEvE11useMemalign) #3
  br label %19

19:                                               ; preds = %15
  %20 = load ptr, ptr %1, align 8
  %21 = load i32, ptr %2, align 4
  %22 = insertvalue { ptr, i32 } poison, ptr %20, 0
  %23 = insertvalue { ptr, i32 } %22, i32 %21, 1
  resume { ptr, i32 } %23
}

; Function Attrs: mustprogress uwtable
define noundef ptr @_ZN2cv10fastMallocEm(i64 noundef %0) #4 {
  %2 = alloca ptr, align 8
  %3 = alloca i64, align 8
  %4 = alloca ptr, align 8
  %5 = alloca i32, align 4
  %6 = alloca ptr, align 8
  %7 = alloca ptr, align 8
  store i64 %0, ptr %3, align 8, !tbaa !17
  %8 = call noundef zeroext i1 @_ZN2cvL26isAlignedAllocationEnabledEv()
  br i1 %8, label %9, label %23

9:                                                ; preds = %1
  call void @llvm.lifetime.start.p0(i64 8, ptr %4) #3
  store ptr null, ptr %4, align 8, !tbaa !19
  %10 = load i64, ptr %3, align 8, !tbaa !17
  %11 = call i32 @posix_memalign(ptr noundef %4, i64 noundef 64, i64 noundef %10) #3
  %12 = icmp ne i32 %11, 0
  br i1 %12, label %13, label %14

13:                                               ; preds = %9
  store ptr null, ptr %4, align 8, !tbaa !19
  br label %14

14:                                               ; preds = %13, %9
  %15 = load ptr, ptr %4, align 8, !tbaa !19
  %16 = icmp ne ptr %15, null
  br i1 %16, label %20, label %17

17:                                               ; preds = %14
  %18 = load i64, ptr %3, align 8, !tbaa !17
  %19 = call noundef ptr @_ZN2cvL16OutOfMemoryErrorEm(i64 noundef %18)
  store ptr %19, ptr %2, align 8
  store i32 1, ptr %5, align 4
  br label %22

20:                                               ; preds = %14
  %21 = load ptr, ptr %4, align 8, !tbaa !19
  store ptr %21, ptr %2, align 8
  store i32 1, ptr %5, align 4
  br label %22

22:                                               ; preds = %20, %17
  call void @llvm.lifetime.end.p0(i64 8, ptr %4) #3
  br label %42

23:                                               ; preds = %1
  call void @llvm.lifetime.start.p0(i64 8, ptr %6) #3
  %24 = load i64, ptr %3, align 8, !tbaa !17
  %25 = add i64 %24, 8
  %26 = add i64 %25, 64
  %27 = call noalias ptr @malloc(i64 noundef %26) #15
  store ptr %27, ptr %6, align 8, !tbaa !20
  %28 = load ptr, ptr %6, align 8, !tbaa !20
  %29 = icmp ne ptr %28, null
  br i1 %29, label %33, label %30

30:                                               ; preds = %23
  %31 = load i64, ptr %3, align 8, !tbaa !17
  %32 = call noundef ptr @_ZN2cvL16OutOfMemoryErrorEm(i64 noundef %31)
  store ptr %32, ptr %2, align 8
  store i32 1, ptr %5, align 4
  br label %41

33:                                               ; preds = %23
  call void @llvm.lifetime.start.p0(i64 8, ptr %7) #3
  %34 = load ptr, ptr %6, align 8, !tbaa !20
  %35 = getelementptr inbounds ptr, ptr %34, i64 1
  %36 = call noundef ptr @_ZN2cvL8alignPtrIPhEEPT_S3_i(ptr noundef %35, i32 noundef 64)
  store ptr %36, ptr %7, align 8, !tbaa !22
  %37 = load ptr, ptr %6, align 8, !tbaa !20
  %38 = load ptr, ptr %7, align 8, !tbaa !22
  %39 = getelementptr inbounds ptr, ptr %38, i64 -1
  store ptr %37, ptr %39, align 8, !tbaa !20
  %40 = load ptr, ptr %7, align 8, !tbaa !22
  store ptr %40, ptr %2, align 8
  store i32 1, ptr %5, align 4
  call void @llvm.lifetime.end.p0(i64 8, ptr %7) #3
  br label %41

41:                                               ; preds = %33, %30
  call void @llvm.lifetime.end.p0(i64 8, ptr %6) #3
  br label %42

42:                                               ; preds = %41, %22
  %43 = load ptr, ptr %2, align 8
  ret ptr %43
}