; Function Attrs: mustprogress uwtable
define noundef ptr @_ZN2cv10fastMallocEm(i64 noundef %0) local_unnamed_addr #6 personality ptr @__gxx_personality_v0 {
  %2 = alloca %"class.std::__cxx11::basic_string", align 8
  %3 = alloca ptr, align 8
  %4 = load atomic i8, ptr @_ZGVZN2cvL26isAlignedAllocationEnabledEvE11useMemalign acquire, align 8
  %5 = icmp eq i8 %4, 0
  br i1 %5, label %6, label %_ZN2cvL26isAlignedAllocationEnabledEv.exit, !prof !3

6:                                                ; preds = %1
  %7 = tail call i32 @__cxa_guard_acquire(ptr nonnull @_ZGVZN2cvL26isAlignedAllocationEnabledEvE11useMemalign) #16
  %.not.i = icmp eq i32 %7, 0
  br i1 %.not.i, label %_ZN2cvL26isAlignedAllocationEnabledEv.exit, label %8

8:                                                ; preds = %6
  %9 = invoke noundef zeroext i1 @_ZN2cv5utils29getConfigurationParameterBoolEPKcb(ptr noundef nonnull @.str, i1 noundef zeroext false)
          to label %_ZN2cvL28readMemoryAlignmentParameterEv.exit.i unwind label %11

_ZN2cvL28readMemoryAlignmentParameterEv.exit.i:   ; preds = %8
  %10 = zext i1 %9 to i8
  store i8 %10, ptr @_ZZN2cvL26isAlignedAllocationEnabledEvE11useMemalign, align 1, !tbaa !4
  tail call void @__cxa_guard_release(ptr nonnull @_ZGVZN2cvL26isAlignedAllocationEnabledEvE11useMemalign) #16
  br label %_ZN2cvL26isAlignedAllocationEnabledEv.exit

common.resume:                                    ; preds = %_ZNSt7__cxx1112basic_stringIcSt11char_traitsIcESaIcEED2Ev.exit.i, %11
  %common.resume.op = phi { ptr, i32 } [ %12, %11 ], [ %21, %_ZNSt7__cxx1112basic_stringIcSt11char_traitsIcESaIcEED2Ev.exit.i ]
  resume { ptr, i32 } %common.resume.op

11:                                               ; preds = %8
  %12 = landingpad { ptr, i32 }
          cleanup
  tail call void @__cxa_guard_abort(ptr nonnull @_ZGVZN2cvL26isAlignedAllocationEnabledEvE11useMemalign) #16
  br label %common.resume

_ZN2cvL26isAlignedAllocationEnabledEv.exit:       ; preds = %1, %6, %_ZN2cvL28readMemoryAlignmentParameterEv.exit.i
  %13 = load i8, ptr @_ZZN2cvL26isAlignedAllocationEnabledEvE11useMemalign, align 1, !tbaa !4, !range !8, !noundef !9
  %14 = trunc nuw i8 %13 to i1
  br i1 %14, label %15, label %29

15:                                               ; preds = %_ZN2cvL26isAlignedAllocationEnabledEv.exit
  call void @llvm.lifetime.start.p0(i64 8, ptr nonnull %3) #16
  store ptr null, ptr %3, align 8, !tbaa !10
  %16 = call i32 @posix_memalign(ptr noundef nonnull %3, i64 noundef 64, i64 noundef %0) #16
  %.not11 = icmp eq i32 %16, 0
  br i1 %.not11, label %17, label %.thread

.thread:                                          ; preds = %15
  store ptr null, ptr %3, align 8, !tbaa !10
  br label %18

17:                                               ; preds = %15
  %.pr = load ptr, ptr %3, align 8, !tbaa !10
  %.not12 = icmp eq ptr %.pr, null
  br i1 %.not12, label %18, label %28

18:                                               ; preds = %.thread, %17
  call void @llvm.lifetime.start.p0(i64 32, ptr nonnull %2) #16
  call void (ptr, ptr, ...) @_ZN2cv6formatB5cxx11EPKcz(ptr dead_on_unwind nonnull writable sret(%"class.std::__cxx11::basic_string") align 8 %2, ptr noundef nonnull @.str.3, i64 noundef %0)
  invoke void @_ZN2cv5errorEiRKNSt7__cxx1112basic_stringIcSt11char_traitsIcESaIcEEEPKcS9_i(i32 noundef -4, ptr noundef nonnull align 8 dereferenceable(32) %2, ptr noundef nonnull @__func__._ZN2cvL16OutOfMemoryErrorEm, ptr noundef nonnull @.str.4, i32 noundef 73) #17
          to label %19 unwind label %20

19:                                               ; preds = %18
  unreachable

20:                                               ; preds = %18
  %21 = landingpad { ptr, i32 }
          cleanup
  %22 = load ptr, ptr %2, align 8, !tbaa !12
  %23 = getelementptr inbounds nuw i8, ptr %2, i64 16
  %24 = icmp eq ptr %22, %23
  br i1 %24, label %_ZNKSt7__cxx1112basic_stringIcSt11char_traitsIcESaIcEE11_M_is_localEv.exit.thread.i.i.i, label %_ZNKSt7__cxx1112basic_stringIcSt11char_traitsIcESaIcEE11_M_is_localEv.exit.i.i.i

_ZNKSt7__cxx1112basic_stringIcSt11char_traitsIcESaIcEE11_M_is_localEv.exit.thread.i.i.i: ; preds = %20
  %25 = getelementptr inbounds nuw i8, ptr %2, i64 8
  %26 = load i64, ptr %25, align 8, !tbaa !17
  %27 = icmp ult i64 %26, 16
  call void @llvm.assume(i1 %27)
  br label %_ZNSt7__cxx1112basic_stringIcSt11char_traitsIcESaIcEED2Ev.exit.i

_ZNKSt7__cxx1112basic_stringIcSt11char_traitsIcESaIcEE11_M_is_localEv.exit.i.i.i: ; preds = %20
  call void @_ZdlPv(ptr noundef %22) #18
  br label %_ZNSt7__cxx1112basic_stringIcSt11char_traitsIcESaIcEED2Ev.exit.i

_ZNSt7__cxx1112basic_stringIcSt11char_traitsIcESaIcEED2Ev.exit.i: ; preds = %_ZNKSt7__cxx1112basic_stringIcSt11char_traitsIcESaIcEE11_M_is_localEv.exit.i.i.i, %_ZNKSt7__cxx1112basic_stringIcSt11char_traitsIcESaIcEE11_M_is_localEv.exit.thread.i.i.i
  call void @llvm.lifetime.end.p0(i64 32, ptr nonnull %2) #16
  br label %common.resume

28:                                               ; preds = %17
  call void @llvm.lifetime.end.p0(i64 8, ptr nonnull %3) #16
  br label %40

29:                                               ; preds = %_ZN2cvL26isAlignedAllocationEnabledEv.exit
  %30 = add i64 %0, 72
  %31 = tail call noalias ptr @malloc(i64 noundef %30) #19
  %.not = icmp eq ptr %31, null
  br i1 %.not, label %32, label %33

32:                                               ; preds = %29
  tail call fastcc void @_ZN2cvL16OutOfMemoryErrorEm(i64 noundef %0)
  unreachable

33:                                               ; preds = %29
  %34 = getelementptr inbounds nuw i8, ptr %31, i64 8
  %35 = ptrtoint ptr %34 to i64
  %36 = add i64 %35, 63
  %37 = and i64 %36, -64
  %38 = inttoptr i64 %37 to ptr
  %39 = getelementptr inbounds i8, ptr %38, i64 -8
  store ptr %31, ptr %39, align 8, !tbaa !18
  br label %40

40:                                               ; preds = %33, %28
  %.1 = phi ptr [ %.pr, %28 ], [ %38, %33 ]
  ret ptr %.1
}